; Function Attrs: nounwind uwtable
define hidden i32 @mbedtls_ssl_tls13_write_finished_message(ptr noundef %0) local_unnamed_addr #0 {
  %2 = alloca ptr, align 8
  %3 = alloca i64, align 8
  call void @llvm.lifetime.start.p0(i64 8, ptr nonnull %2) #8
  call void @llvm.lifetime.start.p0(i64 8, ptr nonnull %3) #8
  tail call void (ptr, i32, ptr, i32, ptr, ...) @mbedtls_debug_print_msg(ptr noundef %0, i32 noundef 2, ptr noundef nonnull @.str, i32 noundef 1209, ptr noundef nonnull @.str.17) #8
  %4 = getelementptr inbounds nuw i8, ptr %0, i64 112
  %5 = load ptr, ptr %4, align 8, !tbaa !23
  %6 = getelementptr inbounds nuw i8, ptr %5, i64 2041
  %7 = getelementptr inbounds nuw i8, ptr %5, i64 2112
  %8 = load ptr, ptr %0, align 8, !tbaa !43
  %9 = getelementptr inbounds nuw i8, ptr %8, i64 8
  %10 = load i8, ptr %9, align 8, !tbaa !44
  %11 = zext i8 %10 to i32
  %12 = tail call i32 @mbedtls_ssl_tls13_calculate_verify_data(ptr noundef nonnull %0, ptr noundef nonnull %6, i64 noundef 64, ptr noundef nonnull %7, i32 noundef %11) #8
  %.not.i = icmp eq i32 %12, 0
  br i1 %.not.i, label %13, label %ssl_tls13_prepare_finished_message.exit

ssl_tls13_prepare_finished_message.exit:          ; preds = %1
  tail call void @mbedtls_debug_print_ret(ptr noundef nonnull %0, i32 noundef 1, ptr noundef nonnull @.str, i32 noundef 1174, ptr noundef nonnull @.str.60, i32 noundef %12) #8
  br label %ssl_tls13_write_finished_message_body.exit

13:                                               ; preds = %1
  %14 = call i32 @mbedtls_ssl_start_handshake_msg(ptr noundef nonnull %0, i8 noundef zeroext 20, ptr noundef nonnull %2, ptr noundef nonnull %3) #8
  %.not15 = icmp eq i32 %14, 0
  br i1 %.not15, label %15, label %ssl_tls13_write_finished_message_body.exit

15:                                               ; preds = %13
  %16 = load i64, ptr %3, align 8, !tbaa !20
  %.val = load ptr, ptr %4, align 8, !tbaa !23
  %17 = getelementptr inbounds nuw i8, ptr %.val, i64 2112
  %18 = load i64, ptr %17, align 8, !tbaa !17
  %.not = icmp ugt i64 %18, %16
  br i1 %.not, label %ssl_tls13_write_finished_message_body.exit, label %19

19:                                               ; preds = %15
  %20 = load ptr, ptr %2, align 8, !tbaa !18
  %21 = getelementptr inbounds nuw i8, ptr %.val, i64 2041
  call void @llvm.memcpy.p0.p0.i64(ptr align 1 %20, ptr nonnull readonly align 1 %21, i64 %18, i1 false)
  %22 = load ptr, ptr %2, align 8, !tbaa !18
  %23 = call i32 @mbedtls_ssl_add_hs_msg_to_checksum(ptr noundef nonnull %0, i32 noundef 20, ptr noundef %22, i64 noundef %18) #8
  %.not17 = icmp eq i32 %23, 0
  br i1 %.not17, label %24, label %ssl_tls13_write_finished_message_body.exit

24:                                               ; preds = %19
  %25 = load i64, ptr %3, align 8, !tbaa !20
  %26 = call i32 @mbedtls_ssl_finish_handshake_msg(ptr noundef nonnull %0, i64 noundef %25, i64 noundef %18) #8
  br label %ssl_tls13_write_finished_message_body.exit

ssl_tls13_write_finished_message_body.exit:       ; preds = %15, %ssl_tls13_prepare_finished_message.exit, %24, %19, %13
  %.0 = phi i32 [ %12, %ssl_tls13_prepare_finished_message.exit ], [ %14, %13 ], [ %23, %19 ], [ %26, %24 ], [ -27136, %15 ]
  call void (ptr, i32, ptr, i32, ptr, ...) @mbedtls_debug_print_msg(ptr noundef nonnull %0, i32 noundef 2, ptr noundef nonnull @.str, i32 noundef 1226, ptr noundef nonnull @.str.18) #8
  call void @llvm.lifetime.end.p0(i64 8, ptr nonnull %3) #8
  call void @llvm.lifetime.end.p0(i64 8, ptr nonnull %2) #8
  ret i32 %.0
}